target datalayout = "e-m:e-p270:32:32-p271:32:32-p272:64:64-i64:64-i128:128-f80:128-n8:16:32:64-S128"
target triple = "x86_64-pc-linux-gnu"

%struct.PauliHamil = type { ptr, ptr, i32, i32 }

@.str.46 = private unnamed_addr constant [4 x i8] c"%d \00", align 1
@__func__.reportPauliHamil = private unnamed_addr constant [17 x i8] c"reportPauliHamil\00", align 1
@.str.47 = private unnamed_addr constant [6 x i8] c"%.14g\00", align 1
@.str.48 = private unnamed_addr constant [2 x i8] c"\09\00", align 1
@.str.49 = private unnamed_addr constant [2 x i8] c"\0A\00", align 1

; Function Attrs: nounwind uwtable
define void @reportPauliHamil(ptr noundef byval(%struct.PauliHamil) align 8 %0) #0 {
  %2 = alloca i32, align 4
  %3 = alloca i32, align 4
  %4 = alloca i32, align 4
  call void @validatePauliHamil(ptr noundef byval(%struct.PauliHamil) align 8 %0, ptr noundef @__func__.reportPauliHamil)
  call void @llvm.lifetime.start.p0(i64 4, ptr %2) #7
  store i32 0, ptr %2, align 4, !tbaa !4
  br label %5

5:                                                ; preds = %44, %1
  %6 = load i32, ptr %2, align 4, !tbaa !4
  %7 = getelementptr inbounds nuw %struct.PauliHamil, ptr %0, i32 0, i32 2
  %8 = load i32, ptr %7, align 8, !tbaa !38
  %9 = icmp slt i32 %6, %8
  br i1 %9, label %11, label %10

10:                                               ; preds = %5
  store i32 2, ptr %3, align 4
  call void @llvm.lifetime.end.p0(i64 4, ptr %2) #7
  br label %47

11:                                               ; preds = %5
  %12 = getelementptr inbounds nuw %struct.PauliHamil, ptr %0, i32 0, i32 1
  %13 = load ptr, ptr %12, align 8, !tbaa !37
  %14 = load i32, ptr %2, align 4, !tbaa !4
  %15 = sext i32 %14 to i64
  %16 = getelementptr inbounds double, ptr %13, i64 %15
  %17 = load double, ptr %16, align 8, !tbaa !25
  %18 = call i32 (ptr, ...) @printf(ptr noundef @.str.47, double noundef %17)
  %19 = call i32 (ptr, ...) @printf(ptr noundef @.str.48)
  call void @llvm.lifetime.start.p0(i64 4, ptr %4) #7
  store i32 0, ptr %4, align 4, !tbaa !4
  br label %20

20:                                               ; preds = %39, %11
  %21 = load i32, ptr %4, align 4, !tbaa !4
  %22 = getelementptr inbounds nuw %struct.PauliHamil, ptr %0, i32 0, i32 3
  %23 = load i32, ptr %22, align 4, !tbaa !50
  %24 = icmp slt i32 %21, %23
  br i1 %24, label %26, label %25

25:                                               ; preds = %20
  store i32 5, ptr %3, align 4
  call void @llvm.lifetime.end.p0(i64 4, ptr %4) #7
  br label %42

26:                                               ; preds = %20
  %27 = getelementptr inbounds nuw %struct.PauliHamil, ptr %0, i32 0, i32 0
  %28 = load ptr, ptr %27, align 8, !tbaa !35
  %29 = load i32, ptr %4, align 4, !tbaa !4
  %30 = load i32, ptr %2, align 4, !tbaa !4
  %31 = getelementptr inbounds nuw %struct.PauliHamil, ptr %0, i32 0, i32 3
  %32 = load i32, ptr %31, align 4, !tbaa !50
  %33 = mul nsw i32 %30, %32
  %34 = add nsw i32 %29, %33
  %35 = sext i32 %34 to i64
  %36 = getelementptr inbounds i32, ptr %28, i64 %35
  %37 = load i32, ptr %36, align 4, !tbaa !4
  %38 = call i32 (ptr, ...) @printf(ptr noundef @.str.46, i32 noundef %37)
  br label %39

39:                                               ; preds = %26
  %40 = load i32, ptr %4, align 4, !tbaa !4
  %41 = add nsw i32 %40, 1
  store i32 %41, ptr %4, align 4, !tbaa !4
  br label %20

42:                                               ; preds = %25
  %43 = call i32 (ptr, ...) @printf(ptr noundef @.str.49)
  br label %44

44:                                               ; preds = %42
  %45 = load i32, ptr %2, align 4, !tbaa !4
  %46 = add nsw i32 %45, 1
  store i32 %46, ptr %2, align 4, !tbaa !4
  br label %5

47:                                               ; preds = %10
  ret void
}