; Function Attrs: nounwind uwtable
define void @reportPauliHamil(ptr noundef readonly byval(%struct.PauliHamil) align 8 captures(none) %0) local_unnamed_addr #0 {
  tail call void @validatePauliHamil(ptr noundef nonnull byval(%struct.PauliHamil) align 8 %0, ptr noundef nonnull @__func__.reportPauliHamil) #17
  %2 = getelementptr inbounds nuw i8, ptr %0, i64 16
  %3 = load i32, ptr %2, align 8, !tbaa !24
  %4 = icmp sgt i32 %3, 0
  br i1 %4, label %.lr.ph13, label %._crit_edge14

.lr.ph13:                                         ; preds = %1
  %5 = getelementptr inbounds nuw i8, ptr %0, i64 8
  %6 = load ptr, ptr %5, align 8, !tbaa !23
  %7 = getelementptr inbounds nuw i8, ptr %0, i64 20
  %8 = load i32, ptr %7, align 4
  %.fr15 = freeze i32 %8
  %9 = icmp sgt i32 %.fr15, 0
  %10 = load ptr, ptr %0, align 8
  br i1 %9, label %.lr.ph.us.preheader, label %.lr.ph13.split.preheader

.lr.ph13.split.preheader:                         ; preds = %.lr.ph13
  %wide.trip.count = zext nneg i32 %3 to i64
  br label %.lr.ph13.split

.lr.ph.us.preheader:                              ; preds = %.lr.ph13
  %11 = zext nneg i32 %.fr15 to i64
  %wide.trip.count26 = zext nneg i32 %3 to i64
  br label %.lr.ph.us

.lr.ph.us:                                        ; preds = %.lr.ph.us.preheader, %._crit_edge.us
  %indvars.iv23 = phi i64 [ 0, %.lr.ph.us.preheader ], [ %indvars.iv.next24, %._crit_edge.us ]
  %12 = getelementptr inbounds nuw double, ptr %6, i64 %indvars.iv23
  %13 = load double, ptr %12, align 8, !tbaa !31
  %14 = tail call i32 (ptr, ...) @printf(ptr noundef nonnull dereferenceable(1) @.str.47, double noundef %13)
  %putchar.us = tail call i32 @putchar(i32 9)
  %15 = mul nuw nsw i64 %indvars.iv23, %11
  %16 = getelementptr inbounds nuw i32, ptr %10, i64 %15
  br label %17

17:                                               ; preds = %.lr.ph.us, %17
  %indvars.iv18 = phi i64 [ 0, %.lr.ph.us ], [ %indvars.iv.next19, %17 ]
  %18 = getelementptr inbounds nuw i32, ptr %16, i64 %indvars.iv18
  %19 = load i32, ptr %18, align 4, !tbaa !20
  %20 = tail call i32 (ptr, ...) @printf(ptr noundef nonnull dereferenceable(1) @.str.46, i32 noundef %19)
  %indvars.iv.next19 = add nuw nsw i64 %indvars.iv18, 1
  %exitcond22.not = icmp eq i64 %indvars.iv.next19, %11
  br i1 %exitcond22.not, label %._crit_edge.us, label %17

._crit_edge.us:                                   ; preds = %17
  %putchar9.us = tail call i32 @putchar(i32 10)
  %indvars.iv.next24 = add nuw nsw i64 %indvars.iv23, 1
  %exitcond27.not = icmp eq i64 %indvars.iv.next24, %wide.trip.count26
  br i1 %exitcond27.not, label %._crit_edge14, label %.lr.ph.us

._crit_edge14:                                    ; preds = %.lr.ph13.split, %._crit_edge.us, %1
  ret void

.lr.ph13.split:                                   ; preds = %.lr.ph13.split.preheader, %.lr.ph13.split
  %indvars.iv = phi i64 [ 0, %.lr.ph13.split.preheader ], [ %indvars.iv.next, %.lr.ph13.split ]
  %21 = getelementptr inbounds nuw double, ptr %6, i64 %indvars.iv
  %22 = load double, ptr %21, align 8, !tbaa !31
  %23 = tail call i32 (ptr, ...) @printf(ptr noundef nonnull dereferenceable(1) @.str.47, double noundef %22)
  %putchar = tail call i32 @putchar(i32 9)
  %putchar9 = tail call i32 @putchar(i32 10)
  %indvars.iv.next = add nuw nsw i64 %indvars.iv, 1
  %exitcond.not = icmp eq i64 %indvars.iv.next, %wide.trip.count
  br i1 %exitcond.not, label %._crit_edge14, label %.lr.ph13.split
}